; Function Attrs: nounwind sspstrong uwtable
define internal fastcc void @fold_brcond(ptr noundef nonnull %0, ptr noundef nonnull %1) unnamed_addr #0 {
  %3 = getelementptr inbounds nuw i8, ptr %1, i64 32
  %4 = getelementptr inbounds nuw i8, ptr %1, i64 40
  %5 = getelementptr inbounds nuw i8, ptr %1, i64 48
  %6 = tail call fastcc i32 @do_constant_folding_cond1(ptr noundef %0, i64 noundef 0, ptr noundef %3, ptr noundef %4, ptr noundef %5)
  %7 = icmp eq i32 %6, 0
  br i1 %7, label %8, label %10

8:                                                ; preds = %2
  %9 = load ptr, ptr %0, align 8
  tail call void @tcg_op_remove(ptr noundef %9, ptr noundef nonnull %1) #9
  br label %54

10:                                               ; preds = %2
  %11 = icmp sgt i32 %6, 0
  br i1 %11, label %12, label %52

12:                                               ; preds = %10
  %13 = load i32, ptr %1, align 8
  %14 = and i32 %13, -256
  %15 = or disjoint i32 %14, 3
  store i32 %15, ptr %1, align 8
  %16 = getelementptr inbounds nuw i8, ptr %1, i64 56
  %17 = load i64, ptr %16, align 8
  store i64 %17, ptr %3, align 8
  %18 = getelementptr inbounds nuw i8, ptr %0, i64 8
  store ptr null, ptr %18, align 8
  %19 = getelementptr inbounds nuw i8, ptr %0, i64 16
  tail call void @llvm.memset.p0.i64(ptr noundef nonnull align 1 dereferenceable(64) %19, i8 noundef 0, i64 noundef 64, i1 noundef false) #9
  %20 = getelementptr inbounds nuw i8, ptr %0, i64 80
  %21 = tail call ptr @interval_tree_iter_first(ptr noundef nonnull %20, i64 noundef 0, i64 noundef -1) #9
  %.not10.i.i.i = icmp eq ptr %21, null
  br i1 %.not10.i.i.i, label %finish_ebb.exit, label %.lr.ph.i.i.i

.lr.ph.i.i.i:                                     ; preds = %12
  %22 = getelementptr inbounds nuw i8, ptr %0, i64 104
  br label %23

23:                                               ; preds = %47, %.lr.ph.i.i.i
  %24 = phi ptr [ %21, %.lr.ph.i.i.i ], [ %50, %47 ]
  %25 = getelementptr inbounds nuw i8, ptr %24, i64 56
  %26 = load ptr, ptr %25, align 8
  %27 = getelementptr i8, ptr %26, i64 48
  %.val.i.i.i.i = load ptr, ptr %27, align 8
  tail call void @interval_tree_remove(ptr noundef nonnull %24, ptr noundef nonnull %20) #9
  %28 = getelementptr inbounds nuw i8, ptr %.val.i.i.i.i, i64 24
  %29 = load ptr, ptr %28, align 8
  %30 = icmp eq ptr %29, %24
  br i1 %30, label %31, label %.preheader.i.i.i.i

31:                                               ; preds = %23
  %32 = getelementptr inbounds nuw i8, ptr %29, i64 48
  %33 = load ptr, ptr %32, align 8
  store ptr %33, ptr %28, align 8
  %34 = icmp eq ptr %33, null
  br i1 %34, label %35, label %37

35:                                               ; preds = %31
  %36 = getelementptr inbounds nuw i8, ptr %.val.i.i.i.i, i64 32
  store ptr %28, ptr %36, align 8
  br label %37

37:                                               ; preds = %35, %31
  store ptr null, ptr %32, align 8
  br label %47

.preheader.i.i.i.i:                               ; preds = %23, %.preheader.i.i.i.i
  %.0.i.i.i.i = phi ptr [ %39, %.preheader.i.i.i.i ], [ %29, %23 ]
  %38 = getelementptr inbounds nuw i8, ptr %.0.i.i.i.i, i64 48
  %39 = load ptr, ptr %38, align 8
  %.not.i.i.i.i = icmp eq ptr %39, %24
  br i1 %.not.i.i.i.i, label %40, label %.preheader.i.i.i.i, !llvm.loop !13

40:                                               ; preds = %.preheader.i.i.i.i
  %41 = getelementptr inbounds nuw i8, ptr %.0.i.i.i.i, i64 48
  %42 = getelementptr inbounds nuw i8, ptr %39, i64 48
  %43 = load ptr, ptr %42, align 8
  store ptr %43, ptr %41, align 8
  %44 = icmp eq ptr %43, null
  br i1 %44, label %45, label %47

45:                                               ; preds = %40
  %46 = getelementptr inbounds nuw i8, ptr %.val.i.i.i.i, i64 32
  store ptr %41, ptr %46, align 8
  br label %47

47:                                               ; preds = %45, %40, %37
  %48 = getelementptr inbounds nuw i8, ptr %24, i64 48
  store ptr null, ptr %48, align 8
  %49 = load ptr, ptr %22, align 8
  store ptr %24, ptr %49, align 8
  store ptr %48, ptr %22, align 8
  %50 = tail call ptr @interval_tree_iter_first(ptr noundef nonnull %20, i64 noundef 0, i64 noundef -1) #9
  %.not.i.i.i = icmp eq ptr %50, null
  br i1 %.not.i.i.i, label %finish_ebb.exit, label %23

finish_ebb.exit:                                  ; preds = %47, %12
  %.val.i.i = load ptr, ptr %20, align 8
  %51 = icmp eq ptr %.val.i.i, null
  tail call void @llvm.assume(i1 %51)
  br label %54

52:                                               ; preds = %10
  %53 = getelementptr inbounds nuw i8, ptr %0, i64 8
  store ptr null, ptr %53, align 8
  br label %54

54:                                               ; preds = %finish_ebb.exit, %52, %8
  ret void
}